target datalayout = "e-m:e-p270:32:32-p271:32:32-p272:64:64-i64:64-i128:128-f80:128-n8:16:32:64-S128"
target triple = "x86_64-pc-linux-gnu"

%struct.Vec_Ptr_t_ = type { i32, i32, ptr }
%struct.Vec_Int_t_ = type { i32, i32, ptr }

; Function Attrs: inlinehint nounwind uwtable
define internal i32 @Abc_InfoHasBit(ptr noundef %0, i32 noundef %1) #4 {
  %3 = alloca ptr, align 8
  %4 = alloca i32, align 4
  store ptr %0, ptr %3, align 8, !tbaa !33
  store i32 %1, ptr %4, align 4, !tbaa !3
  %5 = load ptr, ptr %3, align 8, !tbaa !33
  %6 = load i32, ptr %4, align 4, !tbaa !3
  %7 = ashr i32 %6, 5
  %8 = sext i32 %7 to i64
  %9 = getelementptr inbounds i32, ptr %5, i64 %8
  %10 = load i32, ptr %9, align 4, !tbaa !3
  %11 = load i32, ptr %4, align 4, !tbaa !3
  %12 = and i32 %11, 31
  %13 = shl i32 1, %12
  %14 = and i32 %10, %13
  %15 = icmp ugt i32 %14, 0
  %16 = zext i1 %15 to i32
  ret i32 %16
}

; Function Attrs: inlinehint nounwind uwtable
define internal i32 @Vec_IntEntry(ptr noundef %0, i32 noundef %1) #4 {
  %3 = alloca ptr, align 8
  %4 = alloca i32, align 4
  store ptr %0, ptr %3, align 8, !tbaa !40
  store i32 %1, ptr %4, align 4, !tbaa !3
  %5 = load ptr, ptr %3, align 8, !tbaa !40
  %6 = getelementptr inbounds nuw %struct.Vec_Int_t_, ptr %5, i32 0, i32 2
  %7 = load ptr, ptr %6, align 8, !tbaa !46
  %8 = load i32, ptr %4, align 4, !tbaa !3
  %9 = sext i32 %8 to i64
  %10 = getelementptr inbounds i32, ptr %7, i64 %9
  %11 = load i32, ptr %10, align 4, !tbaa !3
  ret i32 %11
}

; Function Attrs: inlinehint nounwind uwtable
define internal i32 @Abc_Base2Log(i32 noundef %0) #4 {
  %2 = alloca i32, align 4
  %3 = alloca i32, align 4
  %4 = alloca i32, align 4
  %5 = alloca i32, align 4
  store i32 %0, ptr %3, align 4, !tbaa !3
  call void @llvm.lifetime.start.p0(i64 4, ptr %4) #11
  %6 = load i32, ptr %3, align 4, !tbaa !3
  %7 = icmp ult i32 %6, 2
  br i1 %7, label %8, label %10

8:                                                ; preds = %1
  %9 = load i32, ptr %3, align 4, !tbaa !3
  store i32 %9, ptr %2, align 4
  store i32 1, ptr %5, align 4
  br label %24

10:                                               ; preds = %1
  store i32 0, ptr %4, align 4, !tbaa !3
  %11 = load i32, ptr %3, align 4, !tbaa !3
  %12 = add i32 %11, -1
  store i32 %12, ptr %3, align 4, !tbaa !3
  br label %13

13:                                               ; preds = %17, %10
  %14 = load i32, ptr %3, align 4, !tbaa !3
  %15 = icmp ne i32 %14, 0
  br i1 %15, label %16, label %22

16:                                               ; preds = %13
  br label %17

17:                                               ; preds = %16
  %18 = load i32, ptr %3, align 4, !tbaa !3
  %19 = lshr i32 %18, 1
  store i32 %19, ptr %3, align 4, !tbaa !3
  %20 = load i32, ptr %4, align 4, !tbaa !3
  %21 = add nsw i32 %20, 1
  store i32 %21, ptr %4, align 4, !tbaa !3
  br label %13, !llvm.loop !85

22:                                               ; preds = %13
  %23 = load i32, ptr %4, align 4, !tbaa !3
  store i32 %23, ptr %2, align 4
  store i32 1, ptr %5, align 4
  br label %24

24:                                               ; preds = %22, %8
  call void @llvm.lifetime.end.p0(i64 4, ptr %4) #11
  %25 = load i32, ptr %2, align 4
  ret i32 %25
}

; Function Attrs: inlinehint nounwind uwtable
define internal i32 @Vec_IntSize(ptr noundef %0) #4 {
  %2 = alloca ptr, align 8
  store ptr %0, ptr %2, align 8, !tbaa !40
  %3 = load ptr, ptr %2, align 8, !tbaa !40
  %4 = getelementptr inbounds nuw %struct.Vec_Int_t_, ptr %3, i32 0, i32 1
  %5 = load i32, ptr %4, align 4, !tbaa !43
  ret i32 %5
}

; Function Attrs: nounwind uwtable
define i32 @Aig_ManSuppCharCommon(ptr noundef %0, ptr noundef %1) #0 {
  %3 = alloca ptr, align 8
  %4 = alloca ptr, align 8
  %5 = alloca i32, align 4
  %6 = alloca i32, align 4
  %7 = alloca i32, align 4
  store ptr %0, ptr %3, align 8, !tbaa !33
  store ptr %1, ptr %4, align 8, !tbaa !40
  call void @llvm.lifetime.start.p0(i64 4, ptr %5) #11
  call void @llvm.lifetime.start.p0(i64 4, ptr %6) #11
  call void @llvm.lifetime.start.p0(i64 4, ptr %7) #11
  store i32 0, ptr %7, align 4, !tbaa !3
  store i32 0, ptr %5, align 4, !tbaa !3
  br label %8

8:                                                ; preds = %25, %2
  %9 = load i32, ptr %5, align 4, !tbaa !3
  %10 = load ptr, ptr %4, align 8, !tbaa !40
  %11 = call i32 @Vec_IntSize(ptr noundef %10)
  %12 = icmp slt i32 %9, %11
  br i1 %12, label %13, label %17

13:                                               ; preds = %8
  %14 = load ptr, ptr %4, align 8, !tbaa !40
  %15 = load i32, ptr %5, align 4, !tbaa !3
  %16 = call i32 @Vec_IntEntry(ptr noundef %14, i32 noundef %15)
  store i32 %16, ptr %6, align 4, !tbaa !3
  br label %17

17:                                               ; preds = %13, %8
  %18 = phi i1 [ false, %8 ], [ true, %13 ]
  br i1 %18, label %19, label %28

19:                                               ; preds = %17
  %20 = load ptr, ptr %3, align 8, !tbaa !33
  %21 = load i32, ptr %6, align 4, !tbaa !3
  %22 = call i32 @Abc_InfoHasBit(ptr noundef %20, i32 noundef %21)
  %23 = load i32, ptr %7, align 4, !tbaa !3
  %24 = add nsw i32 %23, %22
  store i32 %24, ptr %7, align 4, !tbaa !3
  br label %25

25:                                               ; preds = %19
  %26 = load i32, ptr %5, align 4, !tbaa !3
  %27 = add nsw i32 %26, 1
  store i32 %27, ptr %5, align 4, !tbaa !3
  br label %8, !llvm.loop !83

28:                                               ; preds = %17
  %29 = load i32, ptr %7, align 4, !tbaa !3
  call void @llvm.lifetime.end.p0(i64 4, ptr %7) #11
  call void @llvm.lifetime.end.p0(i64 4, ptr %6) #11
  call void @llvm.lifetime.end.p0(i64 4, ptr %5) #11
  ret i32 %29
}

; Function Attrs: inlinehint nounwind uwtable
define internal ptr @Vec_PtrEntry(ptr noundef %0, i32 noundef %1) #4 {
  %3 = alloca ptr, align 8
  %4 = alloca i32, align 4
  store ptr %0, ptr %3, align 8, !tbaa !17
  store i32 %1, ptr %4, align 4, !tbaa !3
  %5 = load ptr, ptr %3, align 8, !tbaa !17
  %6 = getelementptr inbounds nuw %struct.Vec_Ptr_t_, ptr %5, i32 0, i32 2
  %7 = load ptr, ptr %6, align 8, !tbaa !21
  %8 = load i32, ptr %4, align 4, !tbaa !3
  %9 = sext i32 %8 to i64
  %10 = getelementptr inbounds ptr, ptr %7, i64 %9
  %11 = load ptr, ptr %10, align 8, !tbaa !22
  ret ptr %11
}

; Function Attrs: inlinehint nounwind uwtable
define internal i32 @Vec_PtrSize(ptr noundef %0) #4 {
  %2 = alloca ptr, align 8
  store ptr %0, ptr %2, align 8, !tbaa !17
  %3 = load ptr, ptr %2, align 8, !tbaa !17
  %4 = getelementptr inbounds nuw %struct.Vec_Ptr_t_, ptr %3, i32 0, i32 1
  %5 = load i32, ptr %4, align 4, !tbaa !18
  ret i32 %5
}

; Function Attrs: nounwind uwtable
define i32 @Aig_ManPartitionSmartFindPart(ptr noundef %0, ptr noundef %1, ptr noundef %2, i32 noundef %3, ptr noundef %4) #0 {
  %6 = alloca i32, align 4
  %7 = alloca ptr, align 8
  %8 = alloca ptr, align 8
  %9 = alloca ptr, align 8
  %10 = alloca i32, align 4
  %11 = alloca ptr, align 8
  %12 = alloca ptr, align 8
  %13 = alloca i32, align 4
  %14 = alloca i32, align 4
  %15 = alloca i32, align 4
  %16 = alloca i32, align 4
  %17 = alloca i32, align 4
  %18 = alloca i32, align 4
  %19 = alloca i32, align 4
  %20 = alloca i32, align 4
  store ptr %0, ptr %7, align 8, !tbaa !17
  store ptr %1, ptr %8, align 8, !tbaa !17
  store ptr %2, ptr %9, align 8, !tbaa !17
  store i32 %3, ptr %10, align 4, !tbaa !3
  store ptr %4, ptr %11, align 8, !tbaa !40
  call void @llvm.lifetime.start.p0(i64 8, ptr %12) #11
  call void @llvm.lifetime.start.p0(i64 4, ptr %13) #11
  call void @llvm.lifetime.start.p0(i64 4, ptr %14) #11
  call void @llvm.lifetime.start.p0(i64 4, ptr %15) #11
  call void @llvm.lifetime.start.p0(i64 4, ptr %16) #11
  call void @llvm.lifetime.start.p0(i64 4, ptr %17) #11
  call void @llvm.lifetime.start.p0(i64 4, ptr %18) #11
  call void @llvm.lifetime.start.p0(i64 4, ptr %19) #11
  store i32 -1, ptr %19, align 4, !tbaa !3
  store i32 0, ptr %16, align 4, !tbaa !3
  store i32 0, ptr %17, align 4, !tbaa !3
  br label %21

21:                                               ; preds = %85, %5
  %22 = load i32, ptr %17, align 4, !tbaa !3
  %23 = load ptr, ptr %7, align 8, !tbaa !17
  %24 = call i32 @Vec_PtrSize(ptr noundef %23)
  %25 = icmp slt i32 %22, %24
  br i1 %25, label %26, label %30

26:                                               ; preds = %21
  %27 = load ptr, ptr %7, align 8, !tbaa !17
  %28 = load i32, ptr %17, align 4, !tbaa !3
  %29 = call ptr @Vec_PtrEntry(ptr noundef %27, i32 noundef %28)
  store ptr %29, ptr %12, align 8, !tbaa !40
  br label %30

30:                                               ; preds = %26, %21
  %31 = phi i1 [ false, %21 ], [ true, %26 ]
  br i1 %31, label %32, label %88

32:                                               ; preds = %30
  %33 = load ptr, ptr %9, align 8, !tbaa !17
  %34 = load i32, ptr %17, align 4, !tbaa !3
  %35 = call ptr @Vec_PtrEntry(ptr noundef %33, i32 noundef %34)
  %36 = load ptr, ptr %11, align 8, !tbaa !40
  %37 = call i32 @Aig_ManSuppCharCommon(ptr noundef %35, ptr noundef %36)
  store i32 %37, ptr %18, align 4, !tbaa !3
  %38 = load i32, ptr %18, align 4, !tbaa !3
  %39 = icmp eq i32 %38, 0
  br i1 %39, label %40, label %41

40:                                               ; preds = %32
  br label %85

41:                                               ; preds = %32
  %42 = load i32, ptr %18, align 4, !tbaa !3
  %43 = load ptr, ptr %11, align 8, !tbaa !40
  %44 = call i32 @Vec_IntSize(ptr noundef %43)
  %45 = icmp eq i32 %42, %44
  br i1 %45, label %46, label %48

46:                                               ; preds = %41
  %47 = load i32, ptr %17, align 4, !tbaa !3
  store i32 %47, ptr %6, align 4
  store i32 1, ptr %20, align 4
  br label %94

48:                                               ; preds = %41
  %49 = load i32, ptr %10, align 4, !tbaa !3
  %50 = icmp sgt i32 %49, 0
  br i1 %50, label %51, label %58

51:                                               ; preds = %48
  %52 = load ptr, ptr %12, align 8, !tbaa !40
  %53 = call i32 @Vec_IntSize(ptr noundef %52)
  %54 = load i32, ptr %10, align 4, !tbaa !3
  %55 = mul nsw i32 2, %54
  %56 = icmp sge i32 %53, %55
  br i1 %56, label %57, label %58

57:                                               ; preds = %51
  br label %85

58:                                               ; preds = %51, %48
  %59 = load i32, ptr %18, align 4, !tbaa !3
  %60 = mul nsw i32 1000, %59
  %61 = load ptr, ptr %11, align 8, !tbaa !40
  %62 = call i32 @Vec_IntSize(ptr noundef %61)
  %63 = sdiv i32 %60, %62
  store i32 %63, ptr %13, align 4, !tbaa !3
  %64 = load ptr, ptr %12, align 8, !tbaa !40
  %65 = call i32 @Vec_IntSize(ptr noundef %64)
  %66 = icmp slt i32 %65, 100
  br i1 %66, label %67, label %68

67:                                               ; preds = %58
  store i32 1, ptr %14, align 4, !tbaa !3
  br label %74

68:                                               ; preds = %58
  %69 = load ptr, ptr %12, align 8, !tbaa !40
  %70 = call i32 @Vec_IntSize(ptr noundef %69)
  %71 = sub nsw i32 %70, 100
  %72 = call i32 @Abc_Base2Log(i32 noundef %71)
  %73 = add nsw i32 1, %72
  store i32 %73, ptr %14, align 4, !tbaa !3
  br label %74

74:                                               ; preds = %68, %67
  %75 = load i32, ptr %13, align 4, !tbaa !3
  %76 = load i32, ptr %14, align 4, !tbaa !3
  %77 = sdiv i32 %75, %76
  store i32 %77, ptr %15, align 4, !tbaa !3
  %78 = load i32, ptr %16, align 4, !tbaa !3
  %79 = load i32, ptr %15, align 4, !tbaa !3
  %80 = icmp slt i32 %78, %79
  br i1 %80, label %81, label %84

81:                                               ; preds = %74
  %82 = load i32, ptr %15, align 4, !tbaa !3
  store i32 %82, ptr %16, align 4, !tbaa !3
  %83 = load i32, ptr %17, align 4, !tbaa !3
  store i32 %83, ptr %19, align 4, !tbaa !3
  br label %84

84:                                               ; preds = %81, %74
  br label %85

85:                                               ; preds = %84, %57, %40
  %86 = load i32, ptr %17, align 4, !tbaa !3
  %87 = add nsw i32 %86, 1
  store i32 %87, ptr %17, align 4, !tbaa !3
  br label %21, !llvm.loop !84

88:                                               ; preds = %30
  %89 = load i32, ptr %16, align 4, !tbaa !3
  %90 = icmp slt i32 %89, 75
  br i1 %90, label %91, label %92

91:                                               ; preds = %88
  store i32 -1, ptr %6, align 4
  store i32 1, ptr %20, align 4
  br label %94

92:                                               ; preds = %88
  %93 = load i32, ptr %19, align 4, !tbaa !3
  store i32 %93, ptr %6, align 4
  store i32 1, ptr %20, align 4
  br label %94

94:                                               ; preds = %92, %91, %46
  call void @llvm.lifetime.end.p0(i64 4, ptr %19) #11
  call void @llvm.lifetime.end.p0(i64 4, ptr %18) #11
  call void @llvm.lifetime.end.p0(i64 4, ptr %17) #11
  call void @llvm.lifetime.end.p0(i64 4, ptr %16) #11
  call void @llvm.lifetime.end.p0(i64 4, ptr %15) #11
  call void @llvm.lifetime.end.p0(i64 4, ptr %14) #11
  call void @llvm.lifetime.end.p0(i64 4, ptr %13) #11
  call void @llvm.lifetime.end.p0(i64 8, ptr %12) #11
  %95 = load i32, ptr %6, align 4
  ret i32 %95
}